target datalayout = "e-m:e-p270:32:32-p271:32:32-p272:64:64-i64:64-i128:128-f80:128-n8:16:32:64-S128"
target triple = "x86_64-pc-linux-gnu"

%struct.prov_gcm_ctx_st = type { i32, i64, i64, i64, i64, i64, i64, i64, i64, i64, i32, i8, [128 x i8], [16 x i8], ptr, ptr, %struct.gcm128_context, ptr }
%struct.gcm128_context = type { %union.anon, %union.anon, %union.anon, %union.anon, %union.anon, %union.anon, [16 x %struct.u128], %struct.gcm_funcs_st, i32, i32, ptr, ptr, [48 x i8] }
%union.anon = type { [2 x i64] }
%struct.u128 = type { i64, i64 }
%struct.gcm_funcs_st = type { ptr, ptr, ptr }
%struct.prov_aes_gcm_ctx_st = type { %struct.prov_gcm_ctx_st, %union.anon.0, %union.anon.1 }
%union.anon.0 = type { double, [240 x i8] }
%union.anon.1 = type { i32 }

; Function Attrs: nounwind uwtable
define internal i32 @vaes_gcm_setkey(ptr noundef %0, ptr noundef %1, i64 noundef %2) #0 {
  %4 = alloca ptr, align 8
  %5 = alloca ptr, align 8
  %6 = alloca i64, align 8
  %7 = alloca ptr, align 8
  %8 = alloca ptr, align 8
  %9 = alloca ptr, align 8
  store ptr %0, ptr %4, align 8, !tbaa !9
  store ptr %1, ptr %5, align 8, !tbaa !12
  store i64 %2, ptr %6, align 8, !tbaa !3
  call void @llvm.lifetime.start.p0(i64 8, ptr %7) #5
  %10 = load ptr, ptr %4, align 8, !tbaa !9
  %11 = getelementptr inbounds nuw %struct.prov_gcm_ctx_st, ptr %10, i32 0, i32 16
  store ptr %11, ptr %7, align 8, !tbaa !14
  call void @llvm.lifetime.start.p0(i64 8, ptr %8) #5
  %12 = load ptr, ptr %4, align 8, !tbaa !9
  store ptr %12, ptr %8, align 8, !tbaa !16
  call void @llvm.lifetime.start.p0(i64 8, ptr %9) #5
  %13 = load ptr, ptr %8, align 8, !tbaa !16
  %14 = getelementptr inbounds nuw %struct.prov_aes_gcm_ctx_st, ptr %13, i32 0, i32 1
  store ptr %14, ptr %9, align 8, !tbaa !18
  %15 = load ptr, ptr %5, align 8, !tbaa !12
  %16 = load i64, ptr %6, align 8, !tbaa !3
  %17 = mul i64 %16, 8
  %18 = trunc i64 %17 to i32
  %19 = load ptr, ptr %9, align 8, !tbaa !18
  %20 = call i32 @aesni_set_encrypt_key(ptr noundef %15, i32 noundef %18, ptr noundef %19)
  %21 = load ptr, ptr %7, align 8, !tbaa !14
  call void @llvm.memset.p0.i64(ptr align 8 %21, i8 0, i64 448, i1 false)
  %22 = load ptr, ptr %9, align 8, !tbaa !18
  %23 = load ptr, ptr %7, align 8, !tbaa !14
  %24 = getelementptr inbounds nuw %struct.gcm128_context, ptr %23, i32 0, i32 11
  store ptr %22, ptr %24, align 8, !tbaa !20
  %25 = load ptr, ptr %4, align 8, !tbaa !9
  %26 = getelementptr inbounds nuw %struct.prov_gcm_ctx_st, ptr %25, i32 0, i32 11
  %27 = load i8, ptr %26, align 4
  %28 = and i8 %27, -5
  %29 = or i8 %28, 4
  store i8 %29, ptr %26, align 4
  %30 = load ptr, ptr %9, align 8, !tbaa !18
  %31 = load ptr, ptr %7, align 8, !tbaa !14
  call void @ossl_aes_gcm_init_avx512(ptr noundef %30, ptr noundef %31)
  call void @llvm.lifetime.end.p0(i64 8, ptr %9) #5
  call void @llvm.lifetime.end.p0(i64 8, ptr %8) #5
  call void @llvm.lifetime.end.p0(i64 8, ptr %7) #5
  ret i32 1
}