; Function Attrs: nounwind uwtable
define internal noundef i32 @vaes_gcm_setkey(ptr noundef %0, ptr noundef %1, i64 noundef %2) #0 {
  %4 = getelementptr inbounds nuw i8, ptr %0, i64 248
  %5 = getelementptr inbounds nuw i8, ptr %0, i64 704
  %.tr = trunc i64 %2 to i32
  %6 = shl i32 %.tr, 3
  %7 = tail call i32 @aesni_set_encrypt_key(ptr noundef %1, i32 noundef %6, ptr noundef nonnull %5) #4
  tail call void @llvm.memset.p0.i64(ptr noundef nonnull align 8 dereferenceable(448) %4, i8 0, i64 448, i1 false)
  %8 = getelementptr inbounds nuw i8, ptr %0, i64 640
  store ptr %5, ptr %8, align 8, !tbaa !7
  %9 = getelementptr inbounds nuw i8, ptr %0, i64 84
  %10 = load i8, ptr %9, align 4
  %11 = or i8 %10, 4
  store i8 %11, ptr %9, align 4
  tail call void @ossl_aes_gcm_init_avx512(ptr noundef nonnull %5, ptr noundef nonnull %4) #4
  ret i32 1
}